; Function Attrs: mustprogress uwtable
define i32 @_ZNK10OpenSubdiv6v3_6_03Bfr14SurfaceFactory23GetFaceParameterizationEi(ptr noundef nonnull align 8 dereferenceable(56) %0, i32 noundef %1) local_unnamed_addr #2 align 2 {
  %3 = alloca %"class.OpenSubdiv::v3_6_0::Bfr::Parameterization", align 4
  %4 = getelementptr inbounds nuw i8, ptr %0, i64 8
  %5 = load i32, ptr %4, align 8
  %6 = load ptr, ptr %0, align 8
  %7 = getelementptr inbounds nuw i8, ptr %6, i64 24
  %8 = load ptr, ptr %7, align 8
  %9 = tail call noundef i32 %8(ptr noundef nonnull align 8 dereferenceable(8) %0, i32 noundef %1)
  call void @_ZN10OpenSubdiv6v3_6_03Bfr16ParameterizationC1ENS0_3Sdc10SchemeTypeEi(ptr noundef nonnull align 2 dereferenceable(4) %3, i32 noundef %5, i32 noundef %9)
  %10 = load i32, ptr %3, align 4
  ret i32 %10
}